target datalayout = "e-m:e-p270:32:32-p271:32:32-p272:64:64-i64:64-i128:128-f80:128-n8:16:32:64-S128"
target triple = "x86_64-pc-linux-gnu"

%class.anon = type { i8 }

@stderr = external global ptr, align 8
@stdout = external global ptr, align 8

; Function Attrs: inlinehint mustprogress nounwind uwtable
define available_externally i32 @vprintf(ptr noalias noundef %0, ptr noundef %1) #5 {
  %3 = alloca ptr, align 8
  %4 = alloca ptr, align 8
  store ptr %0, ptr %3, align 8, !tbaa !8
  store ptr %1, ptr %4, align 8, !tbaa !15
  %5 = load ptr, ptr @stdout, align 8, !tbaa !72
  %6 = load ptr, ptr %3, align 8, !tbaa !8
  %7 = load ptr, ptr %4, align 8, !tbaa !15
  %8 = call i32 @vfprintf(ptr noundef %5, ptr noundef %6, ptr noundef %7) #9
  ret i32 %8
}

; Function Attrs: inlinehint mustprogress nounwind uwtable
define internal noundef i32 @"_ZZN8facebook4yoga16getDefaultLoggerEvENK3$_0clEPK8YGConfigPK6YGNode10YGLogLevelPKcP13__va_list_tag"(ptr noundef nonnull align 1 dereferenceable(1) %0, ptr noundef %1, ptr noundef %2, i32 noundef %3, ptr noundef %4, ptr noundef %5) #5 align 2 {
  %7 = alloca i32, align 4
  %8 = alloca ptr, align 8
  %9 = alloca ptr, align 8
  %10 = alloca ptr, align 8
  %11 = alloca i32, align 4
  %12 = alloca ptr, align 8
  %13 = alloca ptr, align 8
  store ptr %0, ptr %8, align 8, !tbaa !65
  store ptr %1, ptr %9, align 8, !tbaa !66
  store ptr %2, ptr %10, align 8, !tbaa !68
  store i32 %3, ptr %11, align 4, !tbaa !70
  store ptr %4, ptr %12, align 8, !tbaa !8
  store ptr %5, ptr %13, align 8, !tbaa !15
  %14 = load i32, ptr %11, align 4, !tbaa !70
  switch i32 %14, label %21 [
    i32 0, label %15
    i32 5, label %15
    i32 1, label %20
    i32 2, label %20
    i32 3, label %20
    i32 4, label %20
  ]

15:                                               ; preds = %6, %6
  %16 = load ptr, ptr @stderr, align 8, !tbaa !72
  %17 = load ptr, ptr %12, align 8, !tbaa !8
  %18 = load ptr, ptr %13, align 8, !tbaa !15
  %19 = call i32 @vfprintf(ptr noundef %16, ptr noundef %17, ptr noundef %18) #9
  store i32 %19, ptr %7, align 4
  br label %25

20:                                               ; preds = %6, %6, %6, %6
  br label %21

21:                                               ; preds = %6, %20
  %22 = load ptr, ptr %12, align 8, !tbaa !8
  %23 = load ptr, ptr %13, align 8, !tbaa !15
  %24 = call i32 @vprintf(ptr noundef %22, ptr noundef %23) #9
  store i32 %24, ptr %7, align 4
  br label %25

25:                                               ; preds = %21, %15
  %26 = load i32, ptr %7, align 4
  ret i32 %26
}

; Function Attrs: inlinehint mustprogress uwtable
define internal noundef i32 @"_ZZN8facebook4yoga16getDefaultLoggerEvEN3$_08__invokeEPK8YGConfigPK6YGNode10YGLogLevelPKcP13__va_list_tag"(ptr noundef %0, ptr noundef %1, i32 noundef %2, ptr noundef %3, ptr noundef %4) #7 align 2 {
  %6 = alloca ptr, align 8
  %7 = alloca ptr, align 8
  %8 = alloca i32, align 4
  %9 = alloca ptr, align 8
  %10 = alloca ptr, align 8
  %11 = alloca %class.anon, align 1
  store ptr %0, ptr %6, align 8, !tbaa !66
  store ptr %1, ptr %7, align 8, !tbaa !68
  store i32 %2, ptr %8, align 4, !tbaa !70
  store ptr %3, ptr %9, align 8, !tbaa !8
  store ptr %4, ptr %10, align 8, !tbaa !15
  %12 = load ptr, ptr %6, align 8, !tbaa !66
  %13 = load ptr, ptr %7, align 8, !tbaa !68
  %14 = load i32, ptr %8, align 4, !tbaa !70
  %15 = load ptr, ptr %9, align 8, !tbaa !8
  %16 = load ptr, ptr %10, align 8, !tbaa !15
  %17 = call noundef i32 @"_ZZN8facebook4yoga16getDefaultLoggerEvENK3$_0clEPK8YGConfigPK6YGNode10YGLogLevelPKcP13__va_list_tag"(ptr noundef nonnull align 1 dereferenceable(1) %11, ptr noundef %12, ptr noundef %13, i32 noundef %14, ptr noundef %15, ptr noundef %16)
  ret i32 %17
}