; Function Attrs: inlinehint mustprogress nofree nounwind uwtable
define internal noundef i32 @"_ZZN8facebook4yoga16getDefaultLoggerEvEN3$_08__invokeEPK8YGConfigPK6YGNode10YGLogLevelPKcP13__va_list_tag"(ptr readnone captures(none) %0, ptr readnone captures(none) %1, i32 noundef %2, ptr noundef readonly captures(none) %3, ptr noundef %4) #8 align 2 {
  %switch.selectcmp.case1.i = icmp eq i32 %2, 0
  %switch.selectcmp.case2.i = icmp eq i32 %2, 5
  %switch.selectcmp.i = or i1 %switch.selectcmp.case1.i, %switch.selectcmp.case2.i
  %stderr.val.i = load ptr, ptr @stderr, align 8
  %stdout.val.i = load ptr, ptr @stdout, align 8
  %6 = select i1 %switch.selectcmp.i, ptr %stderr.val.i, ptr %stdout.val.i
  %7 = tail call noundef i32 @vfprintf(ptr noundef %6, ptr noundef readonly %3, ptr noundef %4) #10
  ret i32 %7
}